; Function Attrs: nounwind uwtable
define void @Llb_ManPrepareGroups(ptr noundef initializes((64, 72)) %0) local_unnamed_addr #3 {
  %2 = tail call noalias dereferenceable_or_null(16) ptr @malloc(i64 noundef 16) #14
  %3 = getelementptr inbounds nuw i8, ptr %2, i64 4
  store i32 0, ptr %3, align 4, !tbaa !12
  store i32 1000, ptr %2, align 8, !tbaa !14
  %4 = tail call noalias dereferenceable_or_null(8000) ptr @malloc(i64 noundef 8000) #14
  %5 = getelementptr inbounds nuw i8, ptr %2, i64 8
  store ptr %4, ptr %5, align 8, !tbaa !15
  %6 = getelementptr inbounds nuw i8, ptr %0, i64 64
  store ptr %2, ptr %6, align 8, !tbaa !18
  %7 = tail call ptr @Llb_ManGroupCreateFirst(ptr noundef %0)
  %8 = getelementptr inbounds nuw i8, ptr %0, i64 16
  %9 = load ptr, ptr %8, align 8, !tbaa !42
  %10 = getelementptr inbounds nuw i8, ptr %9, i64 32
  %11 = load ptr, ptr %10, align 8, !tbaa !63
  %12 = getelementptr i8, ptr %11, i64 4
  %.val31 = load i32, ptr %12, align 4, !tbaa !12
  %13 = icmp sgt i32 %.val31, 0
  br i1 %13, label %.lr.ph, label %.critedge.preheader

.critedge.preheader:                              ; preds = %31, %1
  %14 = phi ptr [ %9, %1 ], [ %32, %31 ]
  %15 = getelementptr i8, ptr %14, i64 104
  %.val2833 = load i32, ptr %15, align 8, !tbaa !48
  %16 = icmp sgt i32 %.val2833, 0
  br i1 %16, label %.lr.ph35, label %.critedge2

.lr.ph:                                           ; preds = %1, %31
  %17 = phi ptr [ %32, %31 ], [ %9, %1 ]
  %indvars.iv = phi i64 [ %indvars.iv.next, %31 ], [ 0, %1 ]
  %18 = phi ptr [ %34, %31 ], [ %11, %1 ]
  %19 = getelementptr i8, ptr %18, i64 8
  %.val27 = load ptr, ptr %19, align 8, !tbaa !15
  %20 = getelementptr inbounds nuw ptr, ptr %.val27, i64 %indvars.iv
  %21 = load ptr, ptr %20, align 8, !tbaa !26
  %22 = icmp eq ptr %21, null
  br i1 %22, label %31, label %23

23:                                               ; preds = %.lr.ph
  %24 = getelementptr i8, ptr %21, i64 24
  %.val30 = load i64, ptr %24, align 8
  %25 = trunc i64 %.val30 to i32
  %26 = and i32 %25, 7
  %27 = add nsw i32 %26, -7
  %narrow.i = icmp ult i32 %27, -2
  %28 = and i64 %.val30, 16
  %.not25 = icmp eq i64 %28, 0
  %or.cond = or i1 %.not25, %narrow.i
  br i1 %or.cond, label %31, label %29

29:                                               ; preds = %23
  %30 = tail call ptr @Llb_ManGroupCreate(ptr noundef nonnull %0, ptr noundef nonnull %21)
  %.pre = load ptr, ptr %8, align 8, !tbaa !42
  br label %31

31:                                               ; preds = %23, %.lr.ph, %29
  %32 = phi ptr [ %17, %23 ], [ %17, %.lr.ph ], [ %.pre, %29 ]
  %indvars.iv.next = add nuw nsw i64 %indvars.iv, 1
  %33 = getelementptr inbounds nuw i8, ptr %32, i64 32
  %34 = load ptr, ptr %33, align 8, !tbaa !63
  %35 = getelementptr i8, ptr %34, i64 4
  %.val = load i32, ptr %35, align 4, !tbaa !12
  %36 = sext i32 %.val to i64
  %37 = icmp slt i64 %indvars.iv.next, %36
  br i1 %37, label %.lr.ph, label %.critedge.preheader, !llvm.loop !70

.lr.ph35:                                         ; preds = %.critedge.preheader, %.critedge
  %38 = phi ptr [ %52, %.critedge ], [ %14, %.critedge.preheader ]
  %.134 = phi i32 [ %53, %.critedge ], [ 0, %.critedge.preheader ]
  %39 = getelementptr inbounds nuw i8, ptr %38, i64 24
  %40 = load ptr, ptr %39, align 8, !tbaa !52
  %41 = getelementptr i8, ptr %38, i64 112
  %.val29 = load i32, ptr %41, align 8, !tbaa !53
  %42 = add nsw i32 %.val29, %.134
  %43 = getelementptr i8, ptr %40, i64 8
  %.val26 = load ptr, ptr %43, align 8, !tbaa !15
  %44 = sext i32 %42 to i64
  %45 = getelementptr inbounds ptr, ptr %.val26, i64 %44
  %46 = load ptr, ptr %45, align 8, !tbaa !26
  %47 = getelementptr inbounds nuw i8, ptr %46, i64 24
  %48 = load i64, ptr %47, align 8
  %49 = and i64 %48, 16
  %.not = icmp eq i64 %49, 0
  br i1 %.not, label %.critedge, label %50

50:                                               ; preds = %.lr.ph35
  %51 = tail call ptr @Llb_ManGroupCreate(ptr noundef nonnull %0, ptr noundef nonnull %46)
  %.pre37 = load ptr, ptr %8, align 8, !tbaa !42
  br label %.critedge

.critedge:                                        ; preds = %.lr.ph35, %50
  %52 = phi ptr [ %38, %.lr.ph35 ], [ %.pre37, %50 ]
  %53 = add nuw nsw i32 %.134, 1
  %54 = getelementptr i8, ptr %52, i64 104
  %.val28 = load i32, ptr %54, align 8, !tbaa !48
  %55 = icmp slt i32 %53, %.val28
  br i1 %55, label %.lr.ph35, label %.critedge2, !llvm.loop !71

.critedge2:                                       ; preds = %.critedge, %.critedge.preheader
  %56 = tail call ptr @Llb_ManGroupCreateLast(ptr noundef nonnull %0)
  ret void
}